; Function Attrs: nounwind uwtable
define range(i32 0, 2) i32 @ossl_asn1_enc_save(ptr noundef readonly captures(address_is_null) %0, ptr noundef readonly captures(none) %1, i32 noundef %2, ptr noundef readonly captures(none) %3) local_unnamed_addr #3 {
  %5 = icmp eq ptr %0, null
  br i1 %5, label %asn1_get_enc_ptr.exit.thread, label %6

6:                                                ; preds = %4
  %7 = load ptr, ptr %0, align 8, !tbaa !3
  %8 = icmp eq ptr %7, null
  br i1 %8, label %asn1_get_enc_ptr.exit.thread, label %9

9:                                                ; preds = %6
  %10 = getelementptr inbounds nuw i8, ptr %3, i64 32
  %11 = load ptr, ptr %10, align 8, !tbaa !16
  %12 = icmp eq ptr %11, null
  br i1 %12, label %asn1_get_enc_ptr.exit.thread, label %13

13:                                               ; preds = %9
  %14 = getelementptr inbounds nuw i8, ptr %11, i64 8
  %15 = load i32, ptr %14, align 8, !tbaa !17
  %16 = and i32 %15, 2
  %17 = icmp eq i32 %16, 0
  br i1 %17, label %asn1_get_enc_ptr.exit.thread, label %asn1_get_enc_ptr.exit

asn1_get_enc_ptr.exit:                            ; preds = %13
  %18 = getelementptr inbounds nuw i8, ptr %11, i64 32
  %19 = load i32, ptr %18, align 8, !tbaa !24
  %20 = sext i32 %19 to i64
  %21 = getelementptr inbounds i8, ptr %7, i64 %20
  %22 = load ptr, ptr %21, align 8, !tbaa !27
  tail call void @CRYPTO_free(ptr noundef %22, ptr noundef nonnull @.str, i32 noundef 172) #8
  %23 = icmp slt i32 %2, 1
  br i1 %23, label %asn1_get_enc_ptr.exit.thread, label %24

24:                                               ; preds = %asn1_get_enc_ptr.exit
  %25 = zext nneg i32 %2 to i64
  %26 = tail call noalias ptr @CRYPTO_malloc(i64 noundef %25, ptr noundef nonnull @.str, i32 noundef 175) #8
  store ptr %26, ptr %21, align 8, !tbaa !27
  %27 = icmp eq ptr %26, null
  br i1 %27, label %asn1_get_enc_ptr.exit.thread, label %28

28:                                               ; preds = %24
  tail call void @llvm.memcpy.p0.p0.i64(ptr nonnull align 1 %26, ptr align 1 %1, i64 %25, i1 false)
  %29 = getelementptr inbounds nuw i8, ptr %21, i64 8
  store i64 %25, ptr %29, align 8, !tbaa !28
  %30 = getelementptr inbounds nuw i8, ptr %21, i64 16
  store i32 0, ptr %30, align 8, !tbaa !25
  br label %asn1_get_enc_ptr.exit.thread

asn1_get_enc_ptr.exit.thread:                     ; preds = %9, %13, %4, %6, %24, %asn1_get_enc_ptr.exit, %28
  %.0 = phi i32 [ 1, %28 ], [ 0, %asn1_get_enc_ptr.exit ], [ 0, %24 ], [ 1, %6 ], [ 1, %4 ], [ 1, %13 ], [ 1, %9 ]
  ret i32 %.0
}